; Function Attrs: mustprogress uwtable
define noundef double @cvDotProduct(ptr noundef %0, ptr noundef %1) local_unnamed_addr #3 personality ptr @__gxx_personality_v0 {
  %3 = alloca %"class.cv::Mat", align 8
  %4 = alloca %"class.cv::_InputArray", align 8
  %5 = alloca %"class.cv::Mat", align 8
  call void @llvm.lifetime.start.p0(i64 96, ptr nonnull %3) #27
  call void @_ZN2cv10cvarrToMatEPKvbbiPNS_10AutoBufferIdLm136EEE(ptr dead_on_unwind nonnull writable sret(%"class.cv::Mat") align 8 %3, ptr noundef %0, i1 noundef zeroext false, i1 noundef zeroext true, i32 noundef 0, ptr noundef null)
  call void @llvm.lifetime.start.p0(i64 24, ptr nonnull %4) #27
  call void @llvm.lifetime.start.p0(i64 96, ptr nonnull %5) #27
  invoke void @_ZN2cv10cvarrToMatEPKvbbiPNS_10AutoBufferIdLm136EEE(ptr dead_on_unwind nonnull writable sret(%"class.cv::Mat") align 8 %5, ptr noundef %1, i1 noundef zeroext false, i1 noundef zeroext true, i32 noundef 0, ptr noundef null)
          to label %6 unwind label %12

6:                                                ; preds = %2
  %7 = getelementptr inbounds nuw i8, ptr %4, i64 16
  store i32 0, ptr %7, align 8, !tbaa !388
  %8 = getelementptr inbounds nuw i8, ptr %4, i64 20
  store i32 0, ptr %8, align 4, !tbaa !389
  store i32 16842752, ptr %4, align 8, !tbaa !390
  %9 = getelementptr inbounds nuw i8, ptr %4, i64 8
  store ptr %5, ptr %9, align 8, !tbaa !376
  %10 = invoke noundef double @_ZNK2cv3Mat3dotERKNS_11_InputArrayE(ptr noundef nonnull align 8 dereferenceable(96) %3, ptr noundef nonnull align 8 dereferenceable(24) %4)
          to label %11 unwind label %14

11:                                               ; preds = %6
  call void @_ZN2cv3MatD1Ev(ptr noundef nonnull align 8 dereferenceable(96) %5) #27
  call void @llvm.lifetime.end.p0(i64 96, ptr nonnull %5) #27
  call void @llvm.lifetime.end.p0(i64 24, ptr nonnull %4) #27
  call void @_ZN2cv3MatD1Ev(ptr noundef nonnull align 8 dereferenceable(96) %3) #27
  call void @llvm.lifetime.end.p0(i64 96, ptr nonnull %3) #27
  ret double %10

12:                                               ; preds = %2
  %13 = landingpad { ptr, i32 }
          cleanup
  br label %16

14:                                               ; preds = %6
  %15 = landingpad { ptr, i32 }
          cleanup
  call void @_ZN2cv3MatD1Ev(ptr noundef nonnull align 8 dereferenceable(96) %5) #27
  br label %16

16:                                               ; preds = %14, %12
  %.pn.pn = phi { ptr, i32 } [ %15, %14 ], [ %13, %12 ]
  call void @llvm.lifetime.end.p0(i64 96, ptr nonnull %5) #27
  call void @llvm.lifetime.end.p0(i64 24, ptr nonnull %4) #27
  call void @_ZN2cv3MatD1Ev(ptr noundef nonnull align 8 dereferenceable(96) %3) #27
  call void @llvm.lifetime.end.p0(i64 96, ptr nonnull %3) #27
  resume { ptr, i32 } %.pn.pn
}